; Function Attrs: mustprogress nofree norecurse nosync nounwind willreturn memory(read, inaccessiblemem: none) uwtable
define noundef i64 @_ZN4base8internal16find_last_not_ofERKNS_16BasicStringPieceINSt7__cxx1112basic_stringIcSt11char_traitsIcESaIcEEEEESA_m(ptr noundef nonnull readonly align 8 captures(none) dereferenceable(16) %0, ptr noundef nonnull readonly align 8 captures(none) dereferenceable(16) %1, i64 noundef %2) local_unnamed_addr #5 {
  %4 = alloca [256 x i8], align 16
  %5 = getelementptr inbounds nuw i8, ptr %0, i64 8
  %6 = load i64, ptr %5, align 8, !tbaa !10
  %7 = icmp eq i64 %6, 0
  br i1 %7, label %_ZN4base8internal16find_last_not_ofERKNS_16BasicStringPieceINSt7__cxx1112basic_stringIcSt11char_traitsIcESaIcEEEEEcm.exit, label %8

8:                                                ; preds = %3
  %9 = add i64 %6, -1
  %.sroa.speculated = tail call i64 @llvm.umin.i64(i64 %9, i64 %2)
  %10 = getelementptr inbounds nuw i8, ptr %1, i64 8
  %11 = load i64, ptr %10, align 8, !tbaa !10
  switch i64 %11, label %23 [
    i64 0, label %_ZN4base8internal16find_last_not_ofERKNS_16BasicStringPieceINSt7__cxx1112basic_stringIcSt11char_traitsIcESaIcEEEEEcm.exit
    i64 1, label %12
  ]

12:                                               ; preds = %8
  %13 = load ptr, ptr %1, align 8, !tbaa !3
  %14 = load i8, ptr %13, align 1, !tbaa !16
  %15 = load ptr, ptr %0, align 8, !tbaa !3
  %16 = getelementptr inbounds nuw i8, ptr %15, i64 %.sroa.speculated
  %17 = load i8, ptr %16, align 1, !tbaa !16
  %.not.not14.i.i = icmp eq i8 %17, %14
  br i1 %.not.not14.i.i, label %.lr.ph.i.i, label %_ZN4base8internal16find_last_not_ofERKNS_16BasicStringPieceINSt7__cxx1112basic_stringIcSt11char_traitsIcESaIcEEEEEcm.exit

.lr.ph.i.i:                                       ; preds = %12, %19
  %.0915.i.i = phi i64 [ %20, %19 ], [ %.sroa.speculated, %12 ]
  %18 = icmp eq i64 %.0915.i.i, 0
  br i1 %18, label %_ZN4base8internal16find_last_not_ofERKNS_16BasicStringPieceINSt7__cxx1112basic_stringIcSt11char_traitsIcESaIcEEEEEcm.exit, label %19

19:                                               ; preds = %.lr.ph.i.i
  %20 = add i64 %.0915.i.i, -1
  %21 = getelementptr inbounds nuw i8, ptr %15, i64 %20
  %22 = load i8, ptr %21, align 1, !tbaa !16
  %.not.not.i.i = icmp eq i8 %22, %14
  br i1 %.not.not.i.i, label %.lr.ph.i.i, label %_ZN4base8internal16find_last_not_ofERKNS_16BasicStringPieceINSt7__cxx1112basic_stringIcSt11char_traitsIcESaIcEEEEEcm.exit, !llvm.loop !33

23:                                               ; preds = %8
  call void @llvm.lifetime.start.p0(i64 256, ptr nonnull %4) #15
  call void @llvm.memset.p0.i64(ptr noundef nonnull align 16 dereferenceable(256) %4, i8 0, i64 256, i1 false)
  %.val = load ptr, ptr %1, align 8, !tbaa !3
  br label %.lr.ph.i

.lr.ph.i:                                         ; preds = %23, %.lr.ph.i
  %.01.i = phi i64 [ %28, %.lr.ph.i ], [ 0, %23 ]
  %24 = getelementptr inbounds nuw i8, ptr %.val, i64 %.01.i
  %25 = load i8, ptr %24, align 1, !tbaa !16
  %26 = zext i8 %25 to i64
  %27 = getelementptr inbounds nuw i8, ptr %4, i64 %26
  store i8 1, ptr %27, align 1, !tbaa !24
  %28 = add nuw i64 %.01.i, 1
  %exitcond.not.i = icmp eq i64 %28, %11
  br i1 %exitcond.not.i, label %_ZN4base12_GLOBAL__N_116BuildLookupTableERKNS_16BasicStringPieceINSt7__cxx1112basic_stringIcSt11char_traitsIcESaIcEEEEEPb.exit.preheader, label %.lr.ph.i, !llvm.loop !26

_ZN4base12_GLOBAL__N_116BuildLookupTableERKNS_16BasicStringPieceINSt7__cxx1112basic_stringIcSt11char_traitsIcESaIcEEEEEPb.exit.preheader: ; preds = %.lr.ph.i
  %29 = load ptr, ptr %0, align 8, !tbaa !3
  %30 = getelementptr inbounds nuw i8, ptr %29, i64 %.sroa.speculated
  %31 = load i8, ptr %30, align 1, !tbaa !16
  %32 = zext i8 %31 to i64
  %33 = getelementptr inbounds nuw [256 x i8], ptr %4, i64 0, i64 %32
  %34 = load i8, ptr %33, align 1, !tbaa !24, !range !27, !noundef !28
  %35 = trunc nuw i8 %34 to i1
  br i1 %35, label %.lr.ph, label %._crit_edge

.lr.ph:                                           ; preds = %_ZN4base12_GLOBAL__N_116BuildLookupTableERKNS_16BasicStringPieceINSt7__cxx1112basic_stringIcSt11char_traitsIcESaIcEEEEEPb.exit.preheader, %_ZN4base12_GLOBAL__N_116BuildLookupTableERKNS_16BasicStringPieceINSt7__cxx1112basic_stringIcSt11char_traitsIcESaIcEEEEEPb.exit
  %.019 = phi i64 [ %37, %_ZN4base12_GLOBAL__N_116BuildLookupTableERKNS_16BasicStringPieceINSt7__cxx1112basic_stringIcSt11char_traitsIcESaIcEEEEEPb.exit ], [ %.sroa.speculated, %_ZN4base12_GLOBAL__N_116BuildLookupTableERKNS_16BasicStringPieceINSt7__cxx1112basic_stringIcSt11char_traitsIcESaIcEEEEEPb.exit.preheader ]
  %36 = icmp eq i64 %.019, 0
  br i1 %36, label %._crit_edge, label %_ZN4base12_GLOBAL__N_116BuildLookupTableERKNS_16BasicStringPieceINSt7__cxx1112basic_stringIcSt11char_traitsIcESaIcEEEEEPb.exit

_ZN4base12_GLOBAL__N_116BuildLookupTableERKNS_16BasicStringPieceINSt7__cxx1112basic_stringIcSt11char_traitsIcESaIcEEEEEPb.exit: ; preds = %.lr.ph
  %37 = add i64 %.019, -1
  %38 = getelementptr inbounds nuw i8, ptr %29, i64 %37
  %39 = load i8, ptr %38, align 1, !tbaa !16
  %40 = zext i8 %39 to i64
  %41 = getelementptr inbounds nuw [256 x i8], ptr %4, i64 0, i64 %40
  %42 = load i8, ptr %41, align 1, !tbaa !24, !range !27, !noundef !28
  %43 = trunc nuw i8 %42 to i1
  br i1 %43, label %.lr.ph, label %._crit_edge, !llvm.loop !34

._crit_edge:                                      ; preds = %_ZN4base12_GLOBAL__N_116BuildLookupTableERKNS_16BasicStringPieceINSt7__cxx1112basic_stringIcSt11char_traitsIcESaIcEEEEEPb.exit, %.lr.ph, %_ZN4base12_GLOBAL__N_116BuildLookupTableERKNS_16BasicStringPieceINSt7__cxx1112basic_stringIcSt11char_traitsIcESaIcEEEEEPb.exit.preheader
  %.2 = phi i64 [ %.sroa.speculated, %_ZN4base12_GLOBAL__N_116BuildLookupTableERKNS_16BasicStringPieceINSt7__cxx1112basic_stringIcSt11char_traitsIcESaIcEEEEEPb.exit.preheader ], [ -1, %.lr.ph ], [ %37, %_ZN4base12_GLOBAL__N_116BuildLookupTableERKNS_16BasicStringPieceINSt7__cxx1112basic_stringIcSt11char_traitsIcESaIcEEEEEPb.exit ]
  call void @llvm.lifetime.end.p0(i64 256, ptr nonnull %4) #15
  br label %_ZN4base8internal16find_last_not_ofERKNS_16BasicStringPieceINSt7__cxx1112basic_stringIcSt11char_traitsIcESaIcEEEEEcm.exit

_ZN4base8internal16find_last_not_ofERKNS_16BasicStringPieceINSt7__cxx1112basic_stringIcSt11char_traitsIcESaIcEEEEEcm.exit: ; preds = %19, %.lr.ph.i.i, %8, %12, %._crit_edge, %3
  %.013 = phi i64 [ -1, %3 ], [ %.2, %._crit_edge ], [ %.sroa.speculated, %8 ], [ %.sroa.speculated, %12 ], [ -1, %.lr.ph.i.i ], [ %20, %19 ]
  ret i64 %.013
}